; Function Attrs: nounwind uwtable
define ptr @l_Lean_Meta_whnfEasyCases___at_Lean_Meta_whnfCore_go___spec__3___lambda__3(ptr noundef %0, ptr noundef %1, ptr noundef %2, ptr noundef %3, ptr noundef %4, ptr noundef %5, ptr noundef %6) local_unnamed_addr #1 {
  %8 = tail call ptr @l_Lean_ConstantInfo_name(ptr noundef %0) #5
  %9 = tail call ptr @l_Lean_Meta_recordUnfold(ptr noundef %8, ptr noundef %2, ptr noundef %3, ptr noundef %4, ptr noundef %5, ptr noundef %6) #5
  %10 = getelementptr inbounds nuw i8, ptr %9, i64 16
  %11 = load ptr, ptr %10, align 8, !tbaa !12
  %12 = ptrtoint ptr %11 to i64
  %13 = and i64 %12, 1
  %.not = icmp eq i64 %13, 0
  br i1 %.not, label %14, label %lean_inc.exit

14:                                               ; preds = %7
  %.val.i = load i32, ptr %11, align 4, !tbaa !4
  %15 = icmp sgt i32 %.val.i, 0
  br i1 %15, label %16, label %18, !prof !11

16:                                               ; preds = %14
  %17 = add nuw i32 %.val.i, 1
  store i32 %17, ptr %11, align 4, !tbaa !4
  br label %lean_inc.exit

18:                                               ; preds = %14
  %.not.i17 = icmp eq i32 %.val.i, 0
  br i1 %.not.i17, label %lean_inc.exit, label %19

19:                                               ; preds = %18
  tail call void @lean_inc_ref_cold(ptr noundef nonnull %11) #5
  br label %lean_inc.exit

lean_inc.exit:                                    ; preds = %19, %18, %16, %7
  %20 = ptrtoint ptr %9 to i64
  %21 = and i64 %20, 1
  %.not18 = icmp eq i64 %21, 0
  br i1 %.not18, label %22, label %lean_dec.exit

22:                                               ; preds = %lean_inc.exit
  %23 = load i32, ptr %9, align 4, !tbaa !4
  %24 = icmp sgt i32 %23, 1
  br i1 %24, label %25, label %27, !prof !11

25:                                               ; preds = %22
  %26 = add nsw i32 %23, -1
  store i32 %26, ptr %9, align 4, !tbaa !4
  br label %lean_dec.exit

27:                                               ; preds = %22
  %.not.i = icmp eq i32 %23, 0
  br i1 %.not.i, label %lean_dec.exit, label %28

28:                                               ; preds = %27
  tail call void @lean_dec_ref_cold(ptr noundef nonnull %9) #5
  br label %lean_dec.exit

lean_dec.exit:                                    ; preds = %28, %27, %25, %lean_inc.exit
  %29 = tail call ptr @l_Lean_Meta_whnfEasyCases___at_Lean_Meta_whnfCore_go___spec__3(ptr noundef %1, ptr noundef %2, ptr noundef %3, ptr noundef %4, ptr noundef %5, ptr noundef %11)
  ret ptr %29
}